target datalayout = "e-m:e-p270:32:32-p271:32:32-p272:64:64-i64:64-i128:128-f80:128-n8:16:32:64-S128"
target triple = "x86_64-pc-linux-gnu"

%"struct.faiss::IndexFastScan" = type { %"struct.faiss::Index.base", i32, i32, i32, i32, i64, i64, i64, i64, i64, i64, %"struct.faiss::AlignedTable", ptr }
%"struct.faiss::Index.base" = type <{ ptr, i32, [4 x i8], i64, i8, i8, [2 x i8], i32, float }>
%"struct.faiss::AlignedTable" = type { %"struct.faiss::AlignedTableTightAlloc", i64 }
%"struct.faiss::AlignedTableTightAlloc" = type { ptr, i64 }
%"struct.faiss::Index" = type <{ ptr, i32, [4 x i8], i64, i8, i8, [2 x i8], i32, float, [4 x i8] }>

@_ZTISt9bad_alloc = external constant ptr
@_ZTVSt9bad_alloc = external unnamed_addr constant { [5 x ptr] }, align 8
@_ZTVSt9exception = external unnamed_addr constant { [5 x ptr] }, align 8

; Function Attrs: mustprogress nounwind uwtable
define linkonce_odr void @_ZNSt9exceptionC2Ev(ptr noundef nonnull align 8 dereferenceable(8) %0) unnamed_addr #0 comdat align 2 {
  %2 = alloca ptr, align 8
  store ptr %0, ptr %2, align 8
  %3 = load ptr, ptr %2, align 8
  store ptr getelementptr inbounds ({ [5 x ptr] }, ptr @_ZTVSt9exception, i32 0, i32 0, i32 2), ptr %3, align 8
  ret void
}

; Function Attrs: mustprogress nounwind uwtable
define linkonce_odr noundef nonnull align 8 dereferenceable(8) ptr @_ZSt3minImERKT_S2_S2_(ptr noundef nonnull align 8 dereferenceable(8) %0, ptr noundef nonnull align 8 dereferenceable(8) %1) #0 comdat {
  %3 = alloca ptr, align 8
  %4 = alloca ptr, align 8
  %5 = alloca ptr, align 8
  store ptr %0, ptr %4, align 8
  store ptr %1, ptr %5, align 8
  %6 = load ptr, ptr %5, align 8
  %7 = load i64, ptr %6, align 8
  %8 = load ptr, ptr %4, align 8
  %9 = load i64, ptr %8, align 8
  %10 = icmp ult i64 %7, %9
  br i1 %10, label %11, label %13

11:                                               ; preds = %2
  %12 = load ptr, ptr %5, align 8
  store ptr %12, ptr %3, align 8
  br label %15

13:                                               ; preds = %2
  %14 = load ptr, ptr %4, align 8
  store ptr %14, ptr %3, align 8
  br label %15

15:                                               ; preds = %13, %11
  %16 = load ptr, ptr %3, align 8
  ret ptr %16
}

; Function Attrs: mustprogress nounwind uwtable
define linkonce_odr void @_ZNSt9bad_allocC2Ev(ptr noundef nonnull align 8 dereferenceable(8) %0) unnamed_addr #0 comdat align 2 {
  %2 = alloca ptr, align 8
  store ptr %0, ptr %2, align 8
  %3 = load ptr, ptr %2, align 8
  call void @_ZNSt9exceptionC2Ev(ptr noundef nonnull align 8 dereferenceable(8) %3) #13
  store ptr getelementptr inbounds ({ [5 x ptr] }, ptr @_ZTVSt9bad_alloc, i32 0, i32 0, i32 2), ptr %3, align 8
  ret void
}

; Function Attrs: mustprogress uwtable
define linkonce_odr void @_ZN5faiss22AlignedTableTightAllocIhLi32EE6resizeEm(ptr noundef nonnull align 8 dereferenceable(16) %0, i64 noundef %1) #2 comdat align 2 {
  %3 = alloca ptr, align 8
  %4 = alloca i64, align 8
  %5 = alloca ptr, align 8
  %6 = alloca i32, align 4
  store ptr %0, ptr %3, align 8
  store i64 %1, ptr %4, align 8
  %7 = load ptr, ptr %3, align 8
  %8 = getelementptr inbounds %"struct.faiss::AlignedTableTightAlloc", ptr %7, i32 0, i32 1
  %9 = load i64, ptr %8, align 8
  %10 = load i64, ptr %4, align 8
  %11 = icmp eq i64 %9, %10
  br i1 %11, label %12, label %13

12:                                               ; preds = %2
  br label %45

13:                                               ; preds = %2
  %14 = load i64, ptr %4, align 8
  %15 = icmp ugt i64 %14, 0
  br i1 %15, label %16, label %37

16:                                               ; preds = %13
  %17 = load i64, ptr %4, align 8
  %18 = mul i64 %17, 1
  %19 = call i32 @posix_memalign(ptr noundef %5, i64 noundef 32, i64 noundef %18) #13
  store i32 %19, ptr %6, align 4
  %20 = load i32, ptr %6, align 4
  %21 = icmp ne i32 %20, 0
  br i1 %21, label %22, label %24

22:                                               ; preds = %16
  %23 = call ptr @__cxa_allocate_exception(i64 8) #13
  call void @_ZNSt9bad_allocC2Ev(ptr noundef nonnull align 8 dereferenceable(8) %23) #13
  call void @__cxa_throw(ptr %23, ptr @_ZTISt9bad_alloc, ptr @_ZNSt9bad_allocD1Ev) #17
  unreachable

24:                                               ; preds = %16
  %25 = getelementptr inbounds %"struct.faiss::AlignedTableTightAlloc", ptr %7, i32 0, i32 1
  %26 = load i64, ptr %25, align 8
  %27 = icmp ugt i64 %26, 0
  br i1 %27, label %28, label %36

28:                                               ; preds = %24
  %29 = load ptr, ptr %5, align 8
  %30 = getelementptr inbounds %"struct.faiss::AlignedTableTightAlloc", ptr %7, i32 0, i32 0
  %31 = load ptr, ptr %30, align 8
  %32 = getelementptr inbounds %"struct.faiss::AlignedTableTightAlloc", ptr %7, i32 0, i32 1
  %33 = call noundef nonnull align 8 dereferenceable(8) ptr @_ZSt3minImERKT_S2_S2_(ptr noundef nonnull align 8 dereferenceable(8) %32, ptr noundef nonnull align 8 dereferenceable(8) %4)
  %34 = load i64, ptr %33, align 8
  %35 = mul i64 1, %34
  call void @llvm.memcpy.p0.p0.i64(ptr align 1 %29, ptr align 1 %31, i64 %35, i1 false)
  br label %36

36:                                               ; preds = %28, %24
  br label %38

37:                                               ; preds = %13
  store ptr null, ptr %5, align 8
  br label %38

38:                                               ; preds = %37, %36
  %39 = load i64, ptr %4, align 8
  %40 = getelementptr inbounds %"struct.faiss::AlignedTableTightAlloc", ptr %7, i32 0, i32 1
  store i64 %39, ptr %40, align 8
  %41 = getelementptr inbounds %"struct.faiss::AlignedTableTightAlloc", ptr %7, i32 0, i32 0
  %42 = load ptr, ptr %41, align 8
  call void @free(ptr noundef %42) #13
  %43 = load ptr, ptr %5, align 8
  %44 = getelementptr inbounds %"struct.faiss::AlignedTableTightAlloc", ptr %7, i32 0, i32 0
  store ptr %43, ptr %44, align 8
  br label %45

45:                                               ; preds = %38, %12
  ret void
}

; Function Attrs: mustprogress nounwind uwtable
define linkonce_odr noundef i64 @_ZN5faiss12AlignedTableIhLi32EE14round_capacityEm(i64 noundef %0) #0 comdat align 2 {
  %2 = alloca i64, align 8
  %3 = alloca i64, align 8
  %4 = alloca i64, align 8
  store i64 %0, ptr %3, align 8
  %5 = load i64, ptr %3, align 8
  %6 = icmp eq i64 %5, 0
  br i1 %6, label %7, label %8

7:                                                ; preds = %1
  store i64 0, ptr %2, align 8
  br label %22

8:                                                ; preds = %1
  %9 = load i64, ptr %3, align 8
  %10 = icmp ult i64 %9, 256
  br i1 %10, label %11, label %12

11:                                               ; preds = %8
  store i64 256, ptr %2, align 8
  br label %22

12:                                               ; preds = %8
  store i64 256, ptr %4, align 8
  br label %13

13:                                               ; preds = %17, %12
  %14 = load i64, ptr %4, align 8
  %15 = load i64, ptr %3, align 8
  %16 = icmp ult i64 %14, %15
  br i1 %16, label %17, label %20

17:                                               ; preds = %13
  %18 = load i64, ptr %4, align 8
  %19 = mul i64 %18, 2
  store i64 %19, ptr %4, align 8
  br label %13, !llvm.loop !10

20:                                               ; preds = %13
  %21 = load i64, ptr %4, align 8
  store i64 %21, ptr %2, align 8
  br label %22

22:                                               ; preds = %20, %11, %7
  %23 = load i64, ptr %2, align 8
  ret i64 %23
}

; Function Attrs: mustprogress uwtable
define linkonce_odr void @_ZN5faiss12AlignedTableIhLi32EE6resizeEm(ptr noundef nonnull align 8 dereferenceable(24) %0, i64 noundef %1) #2 comdat align 2 {
  %3 = alloca ptr, align 8
  %4 = alloca i64, align 8
  store ptr %0, ptr %3, align 8
  store i64 %1, ptr %4, align 8
  %5 = load ptr, ptr %3, align 8
  %6 = getelementptr inbounds %"struct.faiss::AlignedTable", ptr %5, i32 0, i32 0
  %7 = load i64, ptr %4, align 8
  %8 = call noundef i64 @_ZN5faiss12AlignedTableIhLi32EE14round_capacityEm(i64 noundef %7)
  call void @_ZN5faiss22AlignedTableTightAllocIhLi32EE6resizeEm(ptr noundef nonnull align 8 dereferenceable(16) %6, i64 noundef %8)
  %9 = load i64, ptr %4, align 8
  %10 = getelementptr inbounds %"struct.faiss::AlignedTable", ptr %5, i32 0, i32 1
  store i64 %9, ptr %10, align 8
  ret void
}

; Function Attrs: mustprogress uwtable
define void @_ZN5faiss13IndexFastScan5resetEv(ptr noundef nonnull align 8 dereferenceable(136) %0) unnamed_addr #2 align 2 {
  %2 = alloca ptr, align 8
  store ptr %0, ptr %2, align 8
  %3 = load ptr, ptr %2, align 8
  %4 = getelementptr inbounds %"struct.faiss::IndexFastScan", ptr %3, i32 0, i32 11
  call void @_ZN5faiss12AlignedTableIhLi32EE6resizeEm(ptr noundef nonnull align 8 dereferenceable(24) %4, i64 noundef 0)
  %5 = getelementptr inbounds %"struct.faiss::Index", ptr %3, i32 0, i32 3
  store i64 0, ptr %5, align 8
  ret void
}