; Function Attrs: mustprogress nounwind willreturn uwtable
define void @_ZN5faiss13IndexFastScan5resetEv(ptr nocapture noundef nonnull align 8 dereferenceable(136) %0) unnamed_addr #3 align 2 {
  %2 = getelementptr inbounds i8, ptr %0, i64 112
  %3 = load i64, ptr %2, align 8
  %4 = icmp eq i64 %3, 0
  br i1 %4, label %_ZN5faiss12AlignedTableIhLi32EE6resizeEm.exit, label %5

5:                                                ; preds = %1
  %6 = getelementptr inbounds i8, ptr %0, i64 104
  store i64 0, ptr %2, align 8
  %7 = load ptr, ptr %6, align 8
  tail call void @free(ptr noundef %7) #17
  store ptr null, ptr %6, align 8
  br label %_ZN5faiss12AlignedTableIhLi32EE6resizeEm.exit

_ZN5faiss12AlignedTableIhLi32EE6resizeEm.exit:    ; preds = %1, %5
  %8 = getelementptr inbounds i8, ptr %0, i64 120
  store i64 0, ptr %8, align 8
  %9 = getelementptr inbounds i8, ptr %0, i64 16
  store i64 0, ptr %9, align 8
  ret void
}